target datalayout = "e-m:e-p270:32:32-p271:32:32-p272:64:64-i64:64-i128:128-f80:128-n8:16:32:64-S128"
target triple = "x86_64-pc-linux-gnu"

; Function Attrs: mustprogress nounwind uwtable
define internal void @_ZL11countSpacesPDsijPiS0_(ptr noundef %0, i32 noundef %1, i32 noundef %2, ptr noundef %3, ptr noundef %4) #6 {
  %6 = alloca ptr, align 8
  %7 = alloca i32, align 4
  %8 = alloca i32, align 4
  %9 = alloca ptr, align 8
  %10 = alloca ptr, align 8
  %11 = alloca i32, align 4
  %12 = alloca i32, align 4
  %13 = alloca i32, align 4
  store ptr %0, ptr %6, align 8, !tbaa !3
  store i32 %1, ptr %7, align 4, !tbaa !8
  store i32 %2, ptr %8, align 4, !tbaa !8
  store ptr %3, ptr %9, align 8, !tbaa !31
  store ptr %4, ptr %10, align 8, !tbaa !31
  call void @llvm.lifetime.start.p0(i64 4, ptr %11) #8
  store i32 0, ptr %11, align 4, !tbaa !8
  call void @llvm.lifetime.start.p0(i64 4, ptr %12) #8
  store i32 0, ptr %12, align 4, !tbaa !8
  call void @llvm.lifetime.start.p0(i64 4, ptr %13) #8
  store i32 0, ptr %13, align 4, !tbaa !8
  br label %14

14:                                               ; preds = %28, %5
  %15 = load ptr, ptr %6, align 8, !tbaa !3
  %16 = load i32, ptr %11, align 4, !tbaa !8
  %17 = sext i32 %16 to i64
  %18 = getelementptr inbounds i16, ptr %15, i64 %17
  %19 = load i16, ptr %18, align 2, !tbaa !16
  %20 = zext i16 %19 to i32
  %21 = icmp eq i32 %20, 32
  br i1 %21, label %22, label %26

22:                                               ; preds = %14
  %23 = load i32, ptr %12, align 4, !tbaa !8
  %24 = load i32, ptr %7, align 4, !tbaa !8
  %25 = icmp slt i32 %23, %24
  br label %26

26:                                               ; preds = %22, %14
  %27 = phi i1 [ false, %14 ], [ %25, %22 ]
  br i1 %27, label %28, label %33

28:                                               ; preds = %26
  %29 = load i32, ptr %12, align 4, !tbaa !8
  %30 = add nsw i32 %29, 1
  store i32 %30, ptr %12, align 4, !tbaa !8
  %31 = load i32, ptr %11, align 4, !tbaa !8
  %32 = add nsw i32 %31, 1
  store i32 %32, ptr %11, align 4, !tbaa !8
  br label %14, !llvm.loop !33

33:                                               ; preds = %26
  %34 = load i32, ptr %12, align 4, !tbaa !8
  %35 = load i32, ptr %7, align 4, !tbaa !8
  %36 = icmp slt i32 %34, %35
  br i1 %36, label %37, label %53

37:                                               ; preds = %33
  br label %38

38:                                               ; preds = %47, %37
  %39 = load ptr, ptr %6, align 8, !tbaa !3
  %40 = load i32, ptr %7, align 4, !tbaa !8
  %41 = sub nsw i32 %40, 1
  %42 = sext i32 %41 to i64
  %43 = getelementptr inbounds i16, ptr %39, i64 %42
  %44 = load i16, ptr %43, align 2, !tbaa !16
  %45 = zext i16 %44 to i32
  %46 = icmp eq i32 %45, 32
  br i1 %46, label %47, label %52

47:                                               ; preds = %38
  %48 = load i32, ptr %13, align 4, !tbaa !8
  %49 = add nsw i32 %48, 1
  store i32 %49, ptr %13, align 4, !tbaa !8
  %50 = load i32, ptr %7, align 4, !tbaa !8
  %51 = add nsw i32 %50, -1
  store i32 %51, ptr %7, align 4, !tbaa !8
  br label %38, !llvm.loop !34

52:                                               ; preds = %38
  br label %53

53:                                               ; preds = %52, %33
  %54 = load i32, ptr %12, align 4, !tbaa !8
  %55 = load ptr, ptr %9, align 8, !tbaa !31
  store i32 %54, ptr %55, align 4, !tbaa !8
  %56 = load i32, ptr %13, align 4, !tbaa !8
  %57 = load ptr, ptr %10, align 8, !tbaa !31
  store i32 %56, ptr %57, align 4, !tbaa !8
  call void @llvm.lifetime.end.p0(i64 4, ptr %13) #8
  call void @llvm.lifetime.end.p0(i64 4, ptr %12) #8
  call void @llvm.lifetime.end.p0(i64 4, ptr %11) #8
  ret void
}