; Function Attrs: mustprogress nofree norecurse nosync nounwind memory(argmem: readwrite) uwtable
define internal fastcc void @_ZL11countSpacesPDsijPiS0_(ptr noundef nonnull readonly captures(none) %0, i32 noundef %1, ptr noundef nonnull writeonly captures(none) %2, ptr noundef nonnull writeonly captures(none) %3) unnamed_addr #8 {
  %5 = load i16, ptr %0, align 2, !tbaa !9
  %6 = icmp eq i16 %5, 32
  %7 = icmp sgt i32 %1, 0
  %8 = and i1 %6, %7
  br i1 %8, label %.lr.ph, label %._crit_edge

.lr.ph:                                           ; preds = %4, %.lr.ph
  %indvars.iv = phi i64 [ %indvars.iv.next, %.lr.ph ], [ 0, %4 ]
  %indvars.iv.next = add nuw nsw i64 %indvars.iv, 1
  %indvars = trunc i64 %indvars.iv.next to i32
  %9 = getelementptr inbounds nuw i16, ptr %0, i64 %indvars.iv.next
  %10 = load i16, ptr %9, align 2, !tbaa !9
  %11 = icmp eq i16 %10, 32
  %12 = icmp sgt i32 %1, %indvars
  %13 = and i1 %11, %12
  br i1 %13, label %.lr.ph, label %._crit_edge, !llvm.loop !20

._crit_edge:                                      ; preds = %.lr.ph, %4
  %.015.lcssa = phi i32 [ 0, %4 ], [ %indvars, %.lr.ph ]
  %.lcssa = phi i1 [ %7, %4 ], [ %12, %.lr.ph ]
  br i1 %.lcssa, label %.preheader, label %.loopexit

.preheader:                                       ; preds = %._crit_edge
  %invariant.gep = getelementptr i8, ptr %0, i64 -2
  %14 = sext i32 %1 to i64
  %gep22 = getelementptr i16, ptr %invariant.gep, i64 %14
  %15 = load i16, ptr %gep22, align 2, !tbaa !9
  %16 = icmp eq i16 %15, 32
  br i1 %16, label %.lr.ph25, label %.loopexit

.lr.ph25:                                         ; preds = %.preheader, %.lr.ph25
  %indvars.iv33 = phi i64 [ %indvars.iv.next34, %.lr.ph25 ], [ %14, %.preheader ]
  %.124 = phi i32 [ %17, %.lr.ph25 ], [ 0, %.preheader ]
  %17 = add nuw nsw i32 %.124, 1
  %indvars.iv.next34 = add nsw i64 %indvars.iv33, -1
  %gep = getelementptr i16, ptr %invariant.gep, i64 %indvars.iv.next34
  %18 = load i16, ptr %gep, align 2, !tbaa !9
  %19 = icmp eq i16 %18, 32
  br i1 %19, label %.lr.ph25, label %.loopexit, !llvm.loop !21

.loopexit:                                        ; preds = %.lr.ph25, %.preheader, %._crit_edge
  %.0 = phi i32 [ 0, %._crit_edge ], [ 0, %.preheader ], [ %17, %.lr.ph25 ]
  store i32 %.015.lcssa, ptr %2, align 4, !tbaa !7
  store i32 %.0, ptr %3, align 4, !tbaa !7
  ret void
}